target datalayout = "e-m:e-p270:32:32-p271:32:32-p272:64:64-i64:64-i128:128-f80:128-n8:16:32:64-S128"
target triple = "x86_64-pc-linux-gnu"

%struct.pg_compress_specification = type { i32, i32, i32, i32, i8, ptr }
%struct._archiveHandle = type { %struct.Archive, i32, ptr, ptr, i64, i64, i32, %struct.sqlparseInfo, i64, i32, ptr, i64, i64, i64, ptr, ptr, ptr, ptr, ptr, ptr, ptr, ptr, ptr, ptr, ptr, ptr, ptr, ptr, ptr, ptr, ptr, ptr, ptr, ptr, ptr, ptr, ptr, ptr, ptr, ptr, ptr, ptr, ptr, ptr, i32, i32, i8, i32, i8, i32, ptr, ptr, ptr, ptr, i32, i32, ptr, ptr, ptr, %struct.pg_compress_specification, i8, i32, i32, ptr, ptr, ptr, ptr, ptr, i32, ptr, i64, i64, i32, i32, i32, i32, ptr, ptr }
%struct.Archive = type { ptr, ptr, i32, ptr, i32, i8, i32, i32, i32, ptr, i32, i8, ptr, ptr, i8, i32, ptr }
%struct.sqlparseInfo = type { i32, i8, ptr }
%struct.PQExpBufferData = type { ptr, i64, i64 }

@__pg_log_level = external global i32, align 4
@.str.199 = private unnamed_addr constant [50 x i8] c"wrote %zu byte of large object data (result = %d)\00", align 1
@.str.200 = private unnamed_addr constant [51 x i8] c"wrote %zu bytes of large object data (result = %d)\00", align 1
@.str.201 = private unnamed_addr constant [36 x i8] c"could not write to large object: %s\00", align 1
@.str.202 = private unnamed_addr constant [35 x i8] c"SELECT pg_catalog.lowrite(0, %s);\0A\00", align 1

; Function Attrs: nounwind uwtable
define internal void @dump_lo_buf(ptr noundef %0) #0 {
  %2 = alloca ptr, align 8
  %3 = alloca i32, align 4
  %4 = alloca ptr, align 8
  store ptr %0, ptr %2, align 8
  %5 = load ptr, ptr %2, align 8
  %6 = getelementptr inbounds nuw %struct._archiveHandle, ptr %5, i32 0, i32 42
  %7 = load ptr, ptr %6, align 8
  %8 = icmp ne ptr %7, null
  br i1 %8, label %9, label %58

9:                                                ; preds = %1
  call void @llvm.lifetime.start.p0(i64 4, ptr %3) #11
  %10 = load ptr, ptr %2, align 8
  %11 = getelementptr inbounds nuw %struct._archiveHandle, ptr %10, i32 0, i32 42
  %12 = load ptr, ptr %11, align 8
  %13 = load ptr, ptr %2, align 8
  %14 = getelementptr inbounds nuw %struct._archiveHandle, ptr %13, i32 0, i32 47
  %15 = load i32, ptr %14, align 4
  %16 = load ptr, ptr %2, align 8
  %17 = getelementptr inbounds nuw %struct._archiveHandle, ptr %16, i32 0, i32 69
  %18 = load ptr, ptr %17, align 8
  %19 = load ptr, ptr %2, align 8
  %20 = getelementptr inbounds nuw %struct._archiveHandle, ptr %19, i32 0, i32 70
  %21 = load i64, ptr %20, align 8
  %22 = call i32 @lo_write(ptr noundef %12, i32 noundef %15, ptr noundef %18, i64 noundef %21)
  store i32 %22, ptr %3, align 4
  br label %23

23:                                               ; preds = %9
  %24 = load i32, ptr @__pg_log_level, align 4
  %25 = icmp ule i32 %24, 1
  %26 = zext i1 %25 to i32
  %27 = icmp ne i32 %26, 0
  %28 = zext i1 %27 to i32
  %29 = sext i32 %28 to i64
  %30 = call i64 @llvm.expect.i64(i64 %29, i64 0)
  %31 = icmp ne i64 %30, 0
  br i1 %31, label %32, label %42

32:                                               ; preds = %23
  %33 = load ptr, ptr %2, align 8
  %34 = getelementptr inbounds nuw %struct._archiveHandle, ptr %33, i32 0, i32 70
  %35 = load i64, ptr %34, align 8
  %36 = icmp eq i64 %35, 1
  %37 = select i1 %36, ptr @.str.199, ptr @.str.200
  %38 = load ptr, ptr %2, align 8
  %39 = getelementptr inbounds nuw %struct._archiveHandle, ptr %38, i32 0, i32 70
  %40 = load i64, ptr %39, align 8
  %41 = load i32, ptr %3, align 4
  call void (i32, i32, ptr, ...) @pg_log_generic(i32 noundef 1, i32 noundef 0, ptr noundef %37, i64 noundef %40, i32 noundef %41)
  br label %42

42:                                               ; preds = %32, %23
  br label %43

43:                                               ; preds = %42
  br label %44

44:                                               ; preds = %43
  %45 = load i32, ptr %3, align 4
  %46 = sext i32 %45 to i64
  %47 = load ptr, ptr %2, align 8
  %48 = getelementptr inbounds nuw %struct._archiveHandle, ptr %47, i32 0, i32 70
  %49 = load i64, ptr %48, align 8
  %50 = icmp ne i64 %46, %49
  br i1 %50, label %51, label %57

51:                                               ; preds = %44
  %52 = load ptr, ptr %2, align 8
  %53 = load ptr, ptr %2, align 8
  %54 = getelementptr inbounds nuw %struct._archiveHandle, ptr %53, i32 0, i32 42
  %55 = load ptr, ptr %54, align 8
  %56 = call ptr @PQerrorMessage(ptr noundef %55)
  call void (ptr, ptr, ...) @warn_or_exit_horribly(ptr noundef %52, ptr noundef @.str.201, ptr noundef %56)
  br label %57

57:                                               ; preds = %51, %44
  call void @llvm.lifetime.end.p0(i64 4, ptr %3) #11
  br label %82

58:                                               ; preds = %1
  call void @llvm.lifetime.start.p0(i64 8, ptr %4) #11
  %59 = call ptr @createPQExpBuffer()
  store ptr %59, ptr %4, align 8
  %60 = load ptr, ptr %4, align 8
  %61 = load ptr, ptr %2, align 8
  %62 = getelementptr inbounds nuw %struct._archiveHandle, ptr %61, i32 0, i32 69
  %63 = load ptr, ptr %62, align 8
  %64 = load ptr, ptr %2, align 8
  %65 = getelementptr inbounds nuw %struct._archiveHandle, ptr %64, i32 0, i32 70
  %66 = load i64, ptr %65, align 8
  %67 = load ptr, ptr %2, align 8
  %68 = getelementptr inbounds nuw %struct._archiveHandle, ptr %67, i32 0, i32 0
  %69 = getelementptr inbounds nuw %struct.Archive, ptr %68, i32 0, i32 11
  %70 = load i8, ptr %69, align 4, !range !4, !noundef !5
  %71 = trunc i8 %70 to i1
  call void @appendByteaLiteral(ptr noundef %60, ptr noundef %63, i64 noundef %66, i1 noundef zeroext %71)
  %72 = load ptr, ptr %2, align 8
  %73 = getelementptr inbounds nuw %struct._archiveHandle, ptr %72, i32 0, i32 48
  store i8 0, ptr %73, align 8
  %74 = load ptr, ptr %2, align 8
  %75 = load ptr, ptr %4, align 8
  %76 = getelementptr inbounds nuw %struct.PQExpBufferData, ptr %75, i32 0, i32 0
  %77 = load ptr, ptr %76, align 8
  %78 = call i32 (ptr, ptr, ...) @ahprintf(ptr noundef %74, ptr noundef @.str.202, ptr noundef %77)
  %79 = load ptr, ptr %2, align 8
  %80 = getelementptr inbounds nuw %struct._archiveHandle, ptr %79, i32 0, i32 48
  store i8 1, ptr %80, align 8
  %81 = load ptr, ptr %4, align 8
  call void @destroyPQExpBuffer(ptr noundef %81)
  call void @llvm.lifetime.end.p0(i64 8, ptr %4) #11
  br label %82

82:                                               ; preds = %58, %57
  %83 = load ptr, ptr %2, align 8
  %84 = getelementptr inbounds nuw %struct._archiveHandle, ptr %83, i32 0, i32 70
  store i64 0, ptr %84, align 8
  ret void
}