; Function Attrs: nounwind uwtable
define internal fastcc void @dump_lo_buf(ptr noundef %0) unnamed_addr #0 {
  %2 = getelementptr inbounds nuw i8, ptr %0, i64 440
  %3 = load ptr, ptr %2, align 8
  %.not = icmp eq ptr %3, null
  br i1 %.not, label %24, label %4

4:                                                ; preds = %1
  %5 = getelementptr inbounds nuw i8, ptr %0, i64 468
  %6 = load i32, ptr %5, align 4
  %7 = getelementptr inbounds nuw i8, ptr %0, i64 640
  %8 = load ptr, ptr %7, align 8
  %9 = getelementptr inbounds nuw i8, ptr %0, i64 648
  %10 = load i64, ptr %9, align 8
  %11 = tail call i32 @lo_write(ptr noundef nonnull %3, i32 noundef %6, ptr noundef %8, i64 noundef %10) #22
  %12 = load i32, ptr @__pg_log_level, align 4
  %13 = icmp ult i32 %12, 2
  br i1 %13, label %14, label %18, !prof !6

14:                                               ; preds = %4
  %15 = load i64, ptr %9, align 8
  %16 = icmp eq i64 %15, 1
  %17 = select i1 %16, ptr @.str.199, ptr @.str.200
  tail call void (i32, i32, ptr, ...) @pg_log_generic(i32 noundef 1, i32 noundef 0, ptr noundef nonnull %17, i64 noundef %15, i32 noundef %11) #22
  br label %18

18:                                               ; preds = %14, %4
  %19 = sext i32 %11 to i64
  %20 = load i64, ptr %9, align 8
  %.not21 = icmp eq i64 %20, %19
  br i1 %.not21, label %36, label %21

21:                                               ; preds = %18
  %22 = load ptr, ptr %2, align 8
  %23 = tail call ptr @PQerrorMessage(ptr noundef %22) #22
  tail call void (ptr, ptr, ...) @warn_or_exit_horribly(ptr noundef nonnull %0, ptr noundef nonnull @.str.201, ptr noundef %23)
  br label %36

24:                                               ; preds = %1
  %25 = tail call ptr @createPQExpBuffer() #22
  %26 = getelementptr inbounds nuw i8, ptr %0, i64 640
  %27 = load ptr, ptr %26, align 8
  %28 = getelementptr inbounds nuw i8, ptr %0, i64 648
  %29 = load i64, ptr %28, align 8
  %30 = getelementptr inbounds nuw i8, ptr %0, i64 68
  %31 = load i8, ptr %30, align 4, !range !4, !noundef !5
  %32 = trunc nuw i8 %31 to i1
  tail call void @appendByteaLiteral(ptr noundef %25, ptr noundef %27, i64 noundef %29, i1 noundef zeroext %32) #22
  %33 = getelementptr inbounds nuw i8, ptr %0, i64 472
  store i8 0, ptr %33, align 8
  %34 = load ptr, ptr %25, align 8
  %35 = tail call i32 (ptr, ptr, ...) @ahprintf(ptr noundef nonnull %0, ptr noundef nonnull @.str.202, ptr noundef %34)
  store i8 1, ptr %33, align 8
  tail call void @destroyPQExpBuffer(ptr noundef nonnull %25) #22
  br label %36

36:                                               ; preds = %18, %21, %24
  %37 = getelementptr inbounds nuw i8, ptr %0, i64 648
  store i64 0, ptr %37, align 8
  ret void
}